target datalayout = "e-m:e-p270:32:32-p271:32:32-p272:64:64-i64:64-i128:128-f80:128-n8:16:32:64-S128"
target triple = "x86_64-pc-linux-gnu"

%struct.AVCodecContext = type { ptr, i32, i32, ptr, i32, i32, ptr, ptr, ptr, i64, i32, i32, ptr, i32, %struct.AVRational, %struct.AVRational, %struct.AVRational, i32, i32, i32, i32, i32, %struct.AVRational, i32, i32, i32, i32, i32, i32, i32, i32, i32, i32, i32, ptr, ptr, i32, float, float, float, float, float, float, float, float, float, i32, i32, i32, i32, i32, i32, i32, i32, i32, i32, i32, i32, ptr, ptr, ptr, i32, i32, i32, i32, i32, i32, i32, i32, i32, i32, %struct.AVChannelLayout, i32, i32, i32, i32, i32, i32, i32, i32, ptr, i32, i32, i32, float, float, i32, i32, i32, i32, i32, ptr, i64, i64, float, float, i32, i32, ptr, ptr, i32, i32, i32, i32, i32, ptr, ptr, ptr, ptr, i32, i32, [8 x i64], i32, i32, i32, i32, i32, i32, i32, ptr, ptr, i32, i32, i32, i32, i32, i32, i32, i32, i32, i32, ptr, ptr, i32, i32, ptr, ptr, ptr, ptr, i32, i32, i64, i32, i32, i64, ptr, i64, ptr, i32, ptr, i32 }
%struct.AVRational = type { i32, i32 }
%struct.AVChannelLayout = type { i32, i32, %union.anon.0, ptr }
%union.anon.0 = type { i64 }
%struct.JvContext = type { %struct.BlockDSPContext, ptr, [256 x i32] }
%struct.BlockDSPContext = type { ptr, ptr, [2 x ptr] }

@.str.2 = private unnamed_addr constant [33 x i8] c"Invalid video dimensions: %dx%d\0A\00", align 1

; Function Attrs: cold nounwind optsize uwtable
define internal i32 @decode_init(ptr noundef %0) #0 {
  %2 = alloca i32, align 4
  %3 = alloca ptr, align 8
  %4 = alloca ptr, align 8
  %5 = alloca i32, align 4
  store ptr %0, ptr %3, align 8, !tbaa !4
  call void @llvm.lifetime.start.p0(i64 8, ptr %4) #8
  %6 = load ptr, ptr %3, align 8, !tbaa !4
  %7 = getelementptr inbounds nuw %struct.AVCodecContext, ptr %6, i32 0, i32 6
  %8 = load ptr, ptr %7, align 8, !tbaa !9
  store ptr %8, ptr %4, align 8, !tbaa !29
  %9 = load ptr, ptr %3, align 8, !tbaa !4
  %10 = getelementptr inbounds nuw %struct.AVCodecContext, ptr %9, i32 0, i32 18
  %11 = load i32, ptr %10, align 8, !tbaa !31
  %12 = icmp ne i32 %11, 0
  br i1 %12, label %13, label %30

13:                                               ; preds = %1
  %14 = load ptr, ptr %3, align 8, !tbaa !4
  %15 = getelementptr inbounds nuw %struct.AVCodecContext, ptr %14, i32 0, i32 19
  %16 = load i32, ptr %15, align 4, !tbaa !32
  %17 = icmp ne i32 %16, 0
  br i1 %17, label %18, label %30

18:                                               ; preds = %13
  %19 = load ptr, ptr %3, align 8, !tbaa !4
  %20 = getelementptr inbounds nuw %struct.AVCodecContext, ptr %19, i32 0, i32 18
  %21 = load i32, ptr %20, align 8, !tbaa !31
  %22 = and i32 %21, 7
  %23 = icmp ne i32 %22, 0
  br i1 %23, label %30, label %24

24:                                               ; preds = %18
  %25 = load ptr, ptr %3, align 8, !tbaa !4
  %26 = getelementptr inbounds nuw %struct.AVCodecContext, ptr %25, i32 0, i32 19
  %27 = load i32, ptr %26, align 4, !tbaa !32
  %28 = and i32 %27, 7
  %29 = icmp ne i32 %28, 0
  br i1 %29, label %30, label %38

30:                                               ; preds = %24, %18, %13, %1
  %31 = load ptr, ptr %3, align 8, !tbaa !4
  %32 = load ptr, ptr %3, align 8, !tbaa !4
  %33 = getelementptr inbounds nuw %struct.AVCodecContext, ptr %32, i32 0, i32 18
  %34 = load i32, ptr %33, align 8, !tbaa !31
  %35 = load ptr, ptr %3, align 8, !tbaa !4
  %36 = getelementptr inbounds nuw %struct.AVCodecContext, ptr %35, i32 0, i32 19
  %37 = load i32, ptr %36, align 4, !tbaa !32
  call void (ptr, i32, ptr, ...) @av_log(ptr noundef %31, i32 noundef 16, ptr noundef @.str.2, i32 noundef %34, i32 noundef %37)
  store i32 -22, ptr %2, align 4
  store i32 1, ptr %5, align 4
  br label %52

38:                                               ; preds = %24
  %39 = call ptr @av_frame_alloc()
  %40 = load ptr, ptr %4, align 8, !tbaa !29
  %41 = getelementptr inbounds nuw %struct.JvContext, ptr %40, i32 0, i32 1
  store ptr %39, ptr %41, align 8, !tbaa !33
  %42 = load ptr, ptr %4, align 8, !tbaa !29
  %43 = getelementptr inbounds nuw %struct.JvContext, ptr %42, i32 0, i32 1
  %44 = load ptr, ptr %43, align 8, !tbaa !33
  %45 = icmp ne ptr %44, null
  br i1 %45, label %47, label %46

46:                                               ; preds = %38
  store i32 -12, ptr %2, align 4
  store i32 1, ptr %5, align 4
  br label %52

47:                                               ; preds = %38
  %48 = load ptr, ptr %3, align 8, !tbaa !4
  %49 = getelementptr inbounds nuw %struct.AVCodecContext, ptr %48, i32 0, i32 23
  store i32 11, ptr %49, align 8, !tbaa !37
  %50 = load ptr, ptr %4, align 8, !tbaa !29
  %51 = getelementptr inbounds nuw %struct.JvContext, ptr %50, i32 0, i32 0
  call void @ff_blockdsp_init(ptr noundef %51)
  store i32 0, ptr %2, align 4
  store i32 1, ptr %5, align 4
  br label %52

52:                                               ; preds = %47, %46, %30
  call void @llvm.lifetime.end.p0(i64 8, ptr %4) #8
  %53 = load i32, ptr %2, align 4
  ret i32 %53
}