; Function Attrs: cold nounwind optsize uwtable
define internal range(i32 -22, 1) i32 @decode_init(ptr noundef %0) #0 {
  %2 = getelementptr inbounds nuw i8, ptr %0, i64 32
  %3 = load ptr, ptr %2, align 8, !tbaa !4
  %4 = getelementptr inbounds nuw i8, ptr %0, i64 112
  %5 = load i32, ptr %4, align 8, !tbaa !27
  %.not = icmp eq i32 %5, 0
  %.phi.trans.insert = getelementptr inbounds nuw i8, ptr %0, i64 116
  %.pre = load i32, ptr %.phi.trans.insert, align 4, !tbaa !28
  br i1 %.not, label %._crit_edge, label %6

6:                                                ; preds = %1
  %.not14 = icmp ne i32 %.pre, 0
  %7 = or i32 %.pre, %5
  %8 = and i32 %7, 7
  %9 = icmp eq i32 %8, 0
  %or.cond18 = and i1 %.not14, %9
  br i1 %or.cond18, label %10, label %._crit_edge

._crit_edge:                                      ; preds = %1, %6
  tail call void (ptr, i32, ptr, ...) @av_log(ptr noundef nonnull %0, i32 noundef 16, ptr noundef nonnull @.str.2, i32 noundef %5, i32 noundef %.pre) #7
  br label %15

10:                                               ; preds = %6
  %11 = tail call ptr @av_frame_alloc() #7
  %12 = getelementptr inbounds nuw i8, ptr %3, i64 32
  store ptr %11, ptr %12, align 8, !tbaa !29
  %.not17 = icmp eq ptr %11, null
  br i1 %.not17, label %15, label %13

13:                                               ; preds = %10
  %14 = getelementptr inbounds nuw i8, ptr %0, i64 136
  store i32 11, ptr %14, align 8, !tbaa !33
  tail call void @ff_blockdsp_init(ptr noundef nonnull %3) #7
  br label %15

15:                                               ; preds = %10, %13, %._crit_edge
  %.0 = phi i32 [ -22, %._crit_edge ], [ 0, %13 ], [ -12, %10 ]
  ret i32 %.0
}